(dp0
VsEcho
p1
V1
p2
sViColumns
p3
V21
p4
sVsColumns
p5
V,,,,,,,,,,,,,,,,,,,,
p6
sViDisplayStart
p7
L0L
sViDisplayLength
p8
L1000L
sVmDataProp_0
p9
VDistance
p10
sVsSearch_0
p11
V
p12
sVbRegex_0
p13
Vfalse
p14
sVbSearchable_0
p15
Vtrue
p16
sVbSortable_0
p17
g16
sVmDataProp_1
p18
VDistrictNumber
p19
sVsSearch_1
p20
g12
sVbRegex_1
p21
g14
sVbSearchable_1
p22
g16
sVbSortable_1
p23
g16
sVmDataProp_2
p24
VOperatorName
p25
sVsSearch_2
p26
g12
sVbRegex_2
p27
g14
sVbSearchable_2
p28
g16
sVbSortable_2
p29
g16
sVmDataProp_3
p30
VFieldName
p31
sVsSearch_3
p32
g12
sVbRegex_3
p33
g14
sVbSearchable_3
p34
g16
sVbSortable_3
p35
g16
sVmDataProp_4
p36
VLeaseName
p37
sVsSearch_4
p38
g12
sVbRegex_4
p39
g14
sVbSearchable_4
p40
g16
sVbSortable_4
p41
g16
sVmDataProp_5
p42
VWellNumber
p43
sVsSearch_5
p44
g12
sVbRegex_5
p45
g14
sVbSearchable_5
p46
g16
sVbSortable_5
p47
g16
sVmDataProp_6
p48
VAPINumber
p49
sVsSearch_6
p50
g12
sVbRegex_6
p51
g14
sVbSearchable_6
p52
g16
sVbSortable_6
p53
g16
sVmDataProp_7
p54
VWellStatusCode
p55
sVsSearch_7
p56
g12
sVbRegex_7
p57
g14
sVbSearchable_7
p58
g16
sVbSortable_7
p59
g16
sVmDataProp_8
p60
VWellType
p61
sVsSearch_8
p62
g12
sVbRegex_8
p63
g14
sVbSearchable_8
p64
g16
sVbSortable_8
p65
g16
sVmDataProp_9
p66
VSection
p67
sVsSearch_9
p68
g12
sVbRegex_9
p69
g14
sVbSearchable_9
p70
g16
sVbSortable_9
p71
g16
sVmDataProp_10
p72
VTownship
p73
sVsSearch_10
p74
g12
sVbRegex_10
p75
g14
sVbSearchable_10
p76
g16
sVbSortable_10
p77
g16
sVmDataProp_11
p78
VRange
p79
sVsSearch_11
p80
g12
sVbRegex_11
p81
g14
sVbSearchable_11
p82
g16
sVbSortable_11
p83
g16
sVmDataProp_12
p84
VBaseMeridian
p85
sVsSearch_12
p86
g12
sVbRegex_12
p87
g14
sVbSearchable_12
p88
g16
sVbSortable_12
p89
g16
sVmDataProp_13
p90
VSPUDDate
p91
sVsSearch_13
p92
g12
sVbRegex_13
p93
g14
sVbSearchable_13
p94
g16
sVbSortable_13
p95
g16
sVmDataProp_14
p96
VOperatorCode
p97
sVsSearch_14
p98
g12
sVbRegex_14
p99
g14
sVbSearchable_14
p100
g16
sVbSortable_14
p101
g16
sVmDataProp_15
p102
VFieldCode
p103
sVsSearch_15
p104
g12
sVbRegex_15
p105
g14
sVbSearchable_15
p106
g16
sVbSortable_15
p107
g16
sVmDataProp_16
p108
VAreaCode
p109
sVsSearch_16
p110
g12
sVbRegex_16
p111
g14
sVbSearchable_16
p112
g16
sVbSortable_16
p113
g16
sVmDataProp_17
p114
VAreaName
p115
sVsSearch_17
p116
g12
sVbRegex_17
p117
g14
sVbSearchable_17
p118
g16
sVbSortable_17
p119
g16
sVmDataProp_18
p120
VLatitude
p121
sVsSearch_18
p122
g12
sVbRegex_18
p123
g14
sVbSearchable_18
p124
g16
sVbSortable_18
p125
g16
sVmDataProp_19
p126
VLongitude
p127
sVsSearch_19
p128
g12
sVbRegex_19
p129
g14
sVbSearchable_19
p130
g16
sVbSortable_19
p131
g16
sVmDataProp_20
p132
g49
sVsSearch_20
p133
g12
sVbRegex_20
p134
g14
sVbSearchable_20
p135
g14
sVbSortable_20
p136
g14
sVsSearch
p137
g12
sVbRegex
p138
g14
sViSortCol_0
p139
V6
p140
sVsSortDir_0
p141
Vasc
p142
sViSortingCols
p143
g2
sV__RequestVerificationToken
p144
g12
sVdistrictNum
p145
g12
sVcountyCode
p146
g12
sVfieldCode
p147
g12
sVopCode
p148
g12
sVleaseName
p149
g12
sVapiNum
p150
g12
sVaddress
p151
g12
sVactiveWell
p152
g14
sVactiveOp
p153
g14
sVLocation
p154
g12
sVsec
p155
g12
sVtwn
p156
g12
sVrge
p157
g12
sVbm
p158
g12
s.